; ModuleID = 'source-C-CXX/55/393.c'
source_filename = "source-C-CXX/55/393.c"
target datalayout = "e-m:e-p270:32:32-p271:32:32-p272:64:64-i64:64-f80:128-n8:16:32:64-S128"
target triple = "x86_64-pc-linux-gnu"

@.str = private unnamed_addr constant [3 x i8] c"%d\00", align 1
@.str.1 = private unnamed_addr constant [11 x i8] c"%d%d%d%d%d\00", align 1
@.str.2 = private unnamed_addr constant [9 x i8] c"%d%d%d%d\00", align 1
@.str.3 = private unnamed_addr constant [7 x i8] c"%d%d%d\00", align 1
@.str.4 = private unnamed_addr constant [5 x i8] c"%d%d\00", align 1

; Function Attrs: nofree nounwind sspstrong uwtable
define dso_local i32 @main(i32 %0, i8** nocapture readnone %1) local_unnamed_addr #0 {
  %3 = alloca i32, align 4
  %4 = bitcast i32* %3 to i8*
  call void @llvm.lifetime.start.p0i8(i64 4, i8* nonnull %4) #3
  %5 = call i32 (i8*, ...) @__isoc99_scanf(i8* getelementptr inbounds ([3 x i8], [3 x i8]* @.str, i64 0, i64 0), i32* nonnull %3)
  %6 = load i32, i32* %3, align 4, !tbaa !5
  %7 = sdiv i32 %6, 10000
  %8 = sdiv i32 %6, 1000
  %9 = mul nsw i32 %7, -10
  %10 = add nsw i32 %9, %8
  %11 = sdiv i32 %6, 100
  %12 = mul nsw i32 %10, -10
  %13 = mul nsw i32 %7, -100
  %14 = add nsw i32 %13, %11
  %15 = add nsw i32 %14, %12
  %16 = sdiv i32 %6, 10
  %17 = mul nsw i32 %15, -10
  %18 = mul nsw i32 %10, -100
  %19 = mul nsw i32 %7, -1000
  %20 = add nsw i32 %19, %16
  %21 = add nsw i32 %20, %18
  %22 = add nsw i32 %21, %17
  %23 = mul i32 %22, -10
  %24 = mul i32 %15, -100
  %25 = mul i32 %10, -1000
  %26 = mul nsw i32 %7, -10000
  %27 = add i32 %26, %6
  %28 = add i32 %27, %25
  %29 = add i32 %28, %24
  %30 = add i32 %29, %23
  %31 = icmp sgt i32 %6, 9999
  br i1 %31, label %32, label %34

32:                                               ; preds = %2
  %33 = call i32 (i8*, ...) @printf(i8* nonnull dereferenceable(1) getelementptr inbounds ([11 x i8], [11 x i8]* @.str.1, i64 0, i64 0), i32 %30, i32 %22, i32 %15, i32 %10, i32 %7)
  br label %50

34:                                               ; preds = %2
  %35 = icmp sgt i32 %6, 999
  br i1 %35, label %36, label %38

36:                                               ; preds = %34
  %37 = call i32 (i8*, ...) @printf(i8* nonnull dereferenceable(1) getelementptr inbounds ([9 x i8], [9 x i8]* @.str.2, i64 0, i64 0), i32 %30, i32 %22, i32 %15, i32 %10)
  br label %50

38:                                               ; preds = %34
  %39 = icmp sgt i32 %6, 99
  br i1 %39, label %40, label %42

40:                                               ; preds = %38
  %41 = call i32 (i8*, ...) @printf(i8* nonnull dereferenceable(1) getelementptr inbounds ([7 x i8], [7 x i8]* @.str.3, i64 0, i64 0), i32 %30, i32 %22, i32 %15)
  br label %50

42:                                               ; preds = %38
  %43 = icmp sgt i32 %6, 9
  br i1 %43, label %44, label %46

44:                                               ; preds = %42
  %45 = call i32 (i8*, ...) @printf(i8* nonnull dereferenceable(1) getelementptr inbounds ([5 x i8], [5 x i8]* @.str.4, i64 0, i64 0), i32 %30, i32 %22)
  br label %50

46:                                               ; preds = %42
  %47 = icmp sgt i32 %6, 0
  br i1 %47, label %48, label %50

48:                                               ; preds = %46
  %49 = call i32 (i8*, ...) @printf(i8* nonnull dereferenceable(1) getelementptr inbounds ([3 x i8], [3 x i8]* @.str, i64 0, i64 0), i32 %30)
  br label %50

50:                                               ; preds = %36, %44, %48, %46, %40, %32
  call void @llvm.lifetime.end.p0i8(i64 4, i8* nonnull %4) #3
  ret i32 0
}

; Function Attrs: argmemonly mustprogress nofree nosync nounwind willreturn
declare void @llvm.lifetime.start.p0i8(i64 immarg, i8* nocapture) #1

; Function Attrs: nofree nounwind
declare noundef i32 @__isoc99_scanf(i8* nocapture noundef readonly, ...) local_unnamed_addr #2

; Function Attrs: nofree nounwind
declare noundef i32 @printf(i8* nocapture noundef readonly, ...) local_unnamed_addr #2

; Function Attrs: argmemonly mustprogress nofree nosync nounwind willreturn
declare void @llvm.lifetime.end.p0i8(i64 immarg, i8* nocapture) #1


!llvm.module.flags = !{!0, !1, !2, !3}
!llvm.ident = !{!4}

!0 = !{i32 1, !"wchar_size", i32 4}
!1 = !{i32 7, !"PIC Level", i32 2}
!2 = !{i32 7, !"PIE Level", i32 2}
!3 = !{i32 7, !"uwtable", i32 1}
!4 = !{!"clang version 13.0.0"}
!5 = !{!6, !6, i64 0}
!6 = !{!"int", !7, i64 0}
!7 = !{!"omnipotent char", !8, i64 0}
!8 = !{!"Simple C/C++ TBAA"}
